#include <math.h>
#include <stdio.h>
#include <stdlib.h>
#include <string.h>

int main(){
	int i,s1[10000];
	char s[10000];
	gets(s);
	for(i=0;s[i];i++){
		s1[i]=0;
		if(s[i]==' '&&s[i+1]==' '){
			s1[i]=0;
		}else{
			s1[i]=1;
		}
	}
	for(i=0;s[i];i++){
		if(s1[i]==1){
			printf("%c",s[i]);
		}
	}
	return 0;
}